target datalayout = "e-m:e-p270:32:32-p271:32:32-p272:64:64-i64:64-i128:128-f80:128-n8:16:32:64-S128"
target triple = "x86_64-pc-linux-gnu"

%struct.RelationData = type { %struct.RelFileLocator, ptr, i32, i32, i8, i8, i8, i8, i8, i32, i32, i32, i32, ptr, ptr, i32, %struct.LockInfoData, ptr, ptr, ptr, ptr, ptr, i8, ptr, ptr, ptr, ptr, ptr, ptr, i32, ptr, i8, ptr, ptr, i32, i8, i32, ptr, i8, ptr, ptr, ptr, ptr, ptr, ptr, ptr, i32, ptr, ptr, ptr, ptr, ptr, ptr, ptr, ptr, ptr, ptr, ptr, ptr, ptr, ptr, ptr, ptr, ptr, ptr, ptr, i32, i8, ptr }
%struct.RelFileLocator = type { i32, i32, i32 }
%struct.LockInfoData = type { %struct.LockRelId }
%struct.LockRelId = type { i32, i32 }
%struct.FormData_pg_class = type { i32, %struct.nameData, i32, i32, i32, i32, i32, i32, i32, i32, float, i32, i32, i8, i8, i8, i8, i16, i16, i8, i8, i8, i8, i8, i8, i8, i8, i32, i32, i32 }
%struct.nameData = type { [64 x i8] }
%struct.PgStat_EntryRef = type { ptr, ptr, i32, ptr, %struct.dlist_node }
%struct.dlist_node = type { ptr, ptr }
%struct.PgStatShared_Relation = type { %struct.PgStatShared_Common, %struct.PgStat_StatTabEntry }
%struct.PgStatShared_Common = type { i32, %struct.LWLock }
%struct.LWLock = type { i16, %struct.pg_atomic_uint32, %struct.proclist_head }
%struct.pg_atomic_uint32 = type { i32 }
%struct.proclist_head = type { i32, i32 }
%struct.PgStat_StatTabEntry = type { i64, i64, i64, i64, i64, i64, i64, i64, i64, i64, i64, i64, i64, i64, i64, i64, i64, i64, i64, i64, i64, i64, i64, i64, i64, i64, i64 }
%struct.PgStat_TableStatus = type { i32, i8, ptr, %struct.PgStat_TableCounts, ptr }
%struct.PgStat_TableCounts = type { i64, i64, i64, i64, i64, i64, i64, i64, i8, i64, i64, i64, i64, i64 }
%struct.PgStat_TableXactStatus = type { i64, i64, i64, i8, i64, i64, i64, i32, ptr, ptr, ptr }

@MyDatabaseId = external global i32, align 4
@pgstat_track_counts = external global i8, align 1
@MyBackendType = external global i32, align 4

; Function Attrs: nounwind uwtable
define dso_local void @pgstat_report_analyze(ptr noundef %0, i64 noundef %1, i64 noundef %2, i1 noundef zeroext %3, i64 noundef %4) #0 {
  %6 = alloca ptr, align 8
  %7 = alloca i64, align 8
  %8 = alloca i64, align 8
  %9 = alloca i8, align 1
  %10 = alloca i64, align 8
  %11 = alloca ptr, align 8
  %12 = alloca ptr, align 8
  %13 = alloca ptr, align 8
  %14 = alloca i32, align 4
  %15 = alloca i64, align 8
  %16 = alloca i64, align 8
  %17 = alloca i32, align 4
  %18 = alloca ptr, align 8
  store ptr %0, ptr %6, align 8
  store i64 %1, ptr %7, align 8
  store i64 %2, ptr %8, align 8
  %19 = zext i1 %3 to i8
  store i8 %19, ptr %9, align 1
  store i64 %4, ptr %10, align 8
  call void @llvm.lifetime.start.p0(i64 8, ptr %11) #6
  call void @llvm.lifetime.start.p0(i64 8, ptr %12) #6
  call void @llvm.lifetime.start.p0(i64 8, ptr %13) #6
  call void @llvm.lifetime.start.p0(i64 4, ptr %14) #6
  %20 = load ptr, ptr %6, align 8
  %21 = getelementptr inbounds nuw %struct.RelationData, ptr %20, i32 0, i32 13
  %22 = load ptr, ptr %21, align 8
  %23 = getelementptr inbounds nuw %struct.FormData_pg_class, ptr %22, i32 0, i32 14
  %24 = load i8, ptr %23, align 1, !range !4, !noundef !5
  %25 = trunc i8 %24 to i1
  br i1 %25, label %26, label %27

26:                                               ; preds = %5
  br label %29

27:                                               ; preds = %5
  %28 = load i32, ptr @MyDatabaseId, align 4
  br label %29

29:                                               ; preds = %27, %26
  %30 = phi i32 [ 0, %26 ], [ %28, %27 ]
  store i32 %30, ptr %14, align 4
  call void @llvm.lifetime.start.p0(i64 8, ptr %15) #6
  call void @llvm.lifetime.start.p0(i64 8, ptr %16) #6
  %31 = load i8, ptr @pgstat_track_counts, align 1, !range !4, !noundef !5
  %32 = trunc i8 %31 to i1
  br i1 %32, label %34, label %33

33:                                               ; preds = %29
  store i32 1, ptr %17, align 4
  br label %176

34:                                               ; preds = %29
  %35 = load ptr, ptr %6, align 8
  %36 = getelementptr inbounds nuw %struct.RelationData, ptr %35, i32 0, i32 68
  %37 = load ptr, ptr %36, align 8
  %38 = icmp ne ptr %37, null
  %39 = zext i1 %38 to i32
  %40 = icmp ne i32 %39, 0
  %41 = zext i1 %40 to i32
  %42 = sext i32 %41 to i64
  %43 = call i64 @llvm.expect.i64(i64 %42, i64 1)
  %44 = icmp ne i64 %43, 0
  br i1 %44, label %45, label %46

45:                                               ; preds = %34
  br i1 true, label %54, label %117

46:                                               ; preds = %34
  %47 = load ptr, ptr %6, align 8
  %48 = getelementptr inbounds nuw %struct.RelationData, ptr %47, i32 0, i32 67
  %49 = load i8, ptr %48, align 4, !range !4, !noundef !5
  %50 = trunc i8 %49 to i1
  br i1 %50, label %51, label %53

51:                                               ; preds = %46
  %52 = load ptr, ptr %6, align 8
  call void @pgstat_assoc_relation(ptr noundef %52)
  br i1 true, label %54, label %117

53:                                               ; preds = %46
  br i1 false, label %54, label %117

54:                                               ; preds = %53, %51, %45
  %55 = load ptr, ptr %6, align 8
  %56 = getelementptr inbounds nuw %struct.RelationData, ptr %55, i32 0, i32 13
  %57 = load ptr, ptr %56, align 8
  %58 = getelementptr inbounds nuw %struct.FormData_pg_class, ptr %57, i32 0, i32 16
  %59 = load i8, ptr %58, align 1
  %60 = sext i8 %59 to i32
  %61 = icmp ne i32 %60, 112
  br i1 %61, label %62, label %117

62:                                               ; preds = %54
  call void @llvm.lifetime.start.p0(i64 8, ptr %18) #6
  %63 = load ptr, ptr %6, align 8
  %64 = getelementptr inbounds nuw %struct.RelationData, ptr %63, i32 0, i32 68
  %65 = load ptr, ptr %64, align 8
  %66 = getelementptr inbounds nuw %struct.PgStat_TableStatus, ptr %65, i32 0, i32 2
  %67 = load ptr, ptr %66, align 8
  store ptr %67, ptr %18, align 8
  br label %68

68:                                               ; preds = %90, %62
  %69 = load ptr, ptr %18, align 8
  %70 = icmp ne ptr %69, null
  br i1 %70, label %71, label %94

71:                                               ; preds = %68
  %72 = load ptr, ptr %18, align 8
  %73 = getelementptr inbounds nuw %struct.PgStat_TableXactStatus, ptr %72, i32 0, i32 0
  %74 = load i64, ptr %73, align 8
  %75 = load ptr, ptr %18, align 8
  %76 = getelementptr inbounds nuw %struct.PgStat_TableXactStatus, ptr %75, i32 0, i32 2
  %77 = load i64, ptr %76, align 8
  %78 = sub i64 %74, %77
  %79 = load i64, ptr %7, align 8
  %80 = sub i64 %79, %78
  store i64 %80, ptr %7, align 8
  %81 = load ptr, ptr %18, align 8
  %82 = getelementptr inbounds nuw %struct.PgStat_TableXactStatus, ptr %81, i32 0, i32 1
  %83 = load i64, ptr %82, align 8
  %84 = load ptr, ptr %18, align 8
  %85 = getelementptr inbounds nuw %struct.PgStat_TableXactStatus, ptr %84, i32 0, i32 2
  %86 = load i64, ptr %85, align 8
  %87 = add i64 %83, %86
  %88 = load i64, ptr %8, align 8
  %89 = sub i64 %88, %87
  store i64 %89, ptr %8, align 8
  br label %90

90:                                               ; preds = %71
  %91 = load ptr, ptr %18, align 8
  %92 = getelementptr inbounds nuw %struct.PgStat_TableXactStatus, ptr %91, i32 0, i32 8
  %93 = load ptr, ptr %92, align 8
  store ptr %93, ptr %18, align 8
  br label %68, !llvm.loop !6

94:                                               ; preds = %68
  %95 = load ptr, ptr %6, align 8
  %96 = getelementptr inbounds nuw %struct.RelationData, ptr %95, i32 0, i32 68
  %97 = load ptr, ptr %96, align 8
  %98 = getelementptr inbounds nuw %struct.PgStat_TableStatus, ptr %97, i32 0, i32 3
  %99 = getelementptr inbounds nuw %struct.PgStat_TableCounts, ptr %98, i32 0, i32 10
  %100 = load i64, ptr %99, align 8
  %101 = load i64, ptr %8, align 8
  %102 = sub i64 %101, %100
  store i64 %102, ptr %8, align 8
  %103 = load i64, ptr %7, align 8
  %104 = icmp sgt i64 %103, 0
  br i1 %104, label %105, label %107

105:                                              ; preds = %94
  %106 = load i64, ptr %7, align 8
  br label %108

107:                                              ; preds = %94
  br label %108

108:                                              ; preds = %107, %105
  %109 = phi i64 [ %106, %105 ], [ 0, %107 ]
  store i64 %109, ptr %7, align 8
  %110 = load i64, ptr %8, align 8
  %111 = icmp sgt i64 %110, 0
  br i1 %111, label %112, label %114

112:                                              ; preds = %108
  %113 = load i64, ptr %8, align 8
  br label %115

114:                                              ; preds = %108
  br label %115

115:                                              ; preds = %114, %112
  %116 = phi i64 [ %113, %112 ], [ 0, %114 ]
  store i64 %116, ptr %8, align 8
  call void @llvm.lifetime.end.p0(i64 8, ptr %18) #6
  br label %117

117:                                              ; preds = %115, %54, %53, %51, %45
  %118 = call i64 @GetCurrentTimestamp()
  store i64 %118, ptr %15, align 8
  %119 = load i64, ptr %10, align 8
  %120 = load i64, ptr %15, align 8
  %121 = call i64 @TimestampDifferenceMilliseconds(i64 noundef %119, i64 noundef %120)
  store i64 %121, ptr %16, align 8
  %122 = load i32, ptr %14, align 4
  %123 = load ptr, ptr %6, align 8
  %124 = getelementptr inbounds nuw %struct.RelationData, ptr %123, i32 0, i32 15
  %125 = load i32, ptr %124, align 8
  %126 = zext i32 %125 to i64
  %127 = call ptr @pgstat_get_entry_ref_locked(i32 noundef 2, i32 noundef %122, i64 noundef %126, i1 noundef zeroext false)
  store ptr %127, ptr %11, align 8
  %128 = load ptr, ptr %11, align 8
  %129 = getelementptr inbounds nuw %struct.PgStat_EntryRef, ptr %128, i32 0, i32 1
  %130 = load ptr, ptr %129, align 8
  store ptr %130, ptr %12, align 8
  %131 = load ptr, ptr %12, align 8
  %132 = getelementptr inbounds nuw %struct.PgStatShared_Relation, ptr %131, i32 0, i32 1
  store ptr %132, ptr %13, align 8
  %133 = load i64, ptr %7, align 8
  %134 = load ptr, ptr %13, align 8
  %135 = getelementptr inbounds nuw %struct.PgStat_StatTabEntry, ptr %134, i32 0, i32 9
  store i64 %133, ptr %135, align 8
  %136 = load i64, ptr %8, align 8
  %137 = load ptr, ptr %13, align 8
  %138 = getelementptr inbounds nuw %struct.PgStat_StatTabEntry, ptr %137, i32 0, i32 10
  store i64 %136, ptr %138, align 8
  %139 = load i8, ptr %9, align 1, !range !4, !noundef !5
  %140 = trunc i8 %139 to i1
  br i1 %140, label %141, label %144

141:                                              ; preds = %117
  %142 = load ptr, ptr %13, align 8
  %143 = getelementptr inbounds nuw %struct.PgStat_StatTabEntry, ptr %142, i32 0, i32 11
  store i64 0, ptr %143, align 8
  br label %144

144:                                              ; preds = %141, %117
  %145 = load i32, ptr @MyBackendType, align 4
  %146 = icmp eq i32 %145, 4
  br i1 %146, label %147, label %160

147:                                              ; preds = %144
  %148 = load i64, ptr %15, align 8
  %149 = load ptr, ptr %13, align 8
  %150 = getelementptr inbounds nuw %struct.PgStat_StatTabEntry, ptr %149, i32 0, i32 21
  store i64 %148, ptr %150, align 8
  %151 = load ptr, ptr %13, align 8
  %152 = getelementptr inbounds nuw %struct.PgStat_StatTabEntry, ptr %151, i32 0, i32 22
  %153 = load i64, ptr %152, align 8
  %154 = add i64 %153, 1
  store i64 %154, ptr %152, align 8
  %155 = load i64, ptr %16, align 8
  %156 = load ptr, ptr %13, align 8
  %157 = getelementptr inbounds nuw %struct.PgStat_StatTabEntry, ptr %156, i32 0, i32 26
  %158 = load i64, ptr %157, align 8
  %159 = add i64 %158, %155
  store i64 %159, ptr %157, align 8
  br label %173

160:                                              ; preds = %144
  %161 = load i64, ptr %15, align 8
  %162 = load ptr, ptr %13, align 8
  %163 = getelementptr inbounds nuw %struct.PgStat_StatTabEntry, ptr %162, i32 0, i32 19
  store i64 %161, ptr %163, align 8
  %164 = load ptr, ptr %13, align 8
  %165 = getelementptr inbounds nuw %struct.PgStat_StatTabEntry, ptr %164, i32 0, i32 20
  %166 = load i64, ptr %165, align 8
  %167 = add i64 %166, 1
  store i64 %167, ptr %165, align 8
  %168 = load i64, ptr %16, align 8
  %169 = load ptr, ptr %13, align 8
  %170 = getelementptr inbounds nuw %struct.PgStat_StatTabEntry, ptr %169, i32 0, i32 25
  %171 = load i64, ptr %170, align 8
  %172 = add i64 %171, %168
  store i64 %172, ptr %170, align 8
  br label %173

173:                                              ; preds = %160, %147
  %174 = load ptr, ptr %11, align 8
  call void @pgstat_unlock_entry(ptr noundef %174)
  call void @pgstat_flush_io(i1 noundef zeroext false)
  %175 = call zeroext i1 @pgstat_flush_backend(i1 noundef zeroext false, i32 noundef 1)
  store i32 0, ptr %17, align 4
  br label %176

176:                                              ; preds = %173, %33
  call void @llvm.lifetime.end.p0(i64 8, ptr %16) #6
  call void @llvm.lifetime.end.p0(i64 8, ptr %15) #6
  call void @llvm.lifetime.end.p0(i64 4, ptr %14) #6
  call void @llvm.lifetime.end.p0(i64 8, ptr %13) #6
  call void @llvm.lifetime.end.p0(i64 8, ptr %12) #6
  call void @llvm.lifetime.end.p0(i64 8, ptr %11) #6
  %177 = load i32, ptr %17, align 4
  switch i32 %177, label %179 [
    i32 0, label %178
    i32 1, label %178
  ]

178:                                              ; preds = %176, %176
  ret void

179:                                              ; preds = %176
  unreachable
}