; Function Attrs: nounwind uwtable
define dso_local void @pgstat_report_analyze(ptr noundef %0, i64 noundef %1, i64 noundef %2, i1 noundef zeroext %3, i64 noundef %4) local_unnamed_addr #0 {
  %6 = getelementptr inbounds nuw i8, ptr %0, i64 56
  %7 = load ptr, ptr %6, align 8
  %8 = getelementptr inbounds nuw i8, ptr %7, i64 113
  %9 = load i8, ptr %8, align 1, !range !4, !noundef !5
  %10 = trunc nuw i8 %9 to i1
  %11 = load i32, ptr @MyDatabaseId, align 4
  %12 = select i1 %10, i32 0, i32 %11
  %13 = load i8, ptr @pgstat_track_counts, align 1, !range !4, !noundef !5
  %14 = trunc nuw i8 %13 to i1
  br i1 %14, label %15, label %68

15:                                               ; preds = %5
  %16 = getelementptr inbounds nuw i8, ptr %0, i64 480
  %17 = load ptr, ptr %16, align 8
  %.not = icmp eq ptr %17, null
  br i1 %.not, label %18, label %23, !prof !6

18:                                               ; preds = %15
  %19 = getelementptr inbounds nuw i8, ptr %0, i64 476
  %20 = load i8, ptr %19, align 4, !range !4, !noundef !5
  %21 = trunc nuw i8 %20 to i1
  br i1 %21, label %22, label %44

22:                                               ; preds = %18
  tail call void @pgstat_assoc_relation(ptr noundef nonnull %0)
  %.pre = load ptr, ptr %6, align 8
  br label %23

23:                                               ; preds = %15, %22
  %24 = phi ptr [ %7, %15 ], [ %.pre, %22 ]
  %25 = getelementptr inbounds nuw i8, ptr %24, i64 115
  %26 = load i8, ptr %25, align 1
  %.not45 = icmp eq i8 %26, 112
  br i1 %.not45, label %44, label %27

27:                                               ; preds = %23
  %28 = load ptr, ptr %16, align 8
  %29 = getelementptr inbounds nuw i8, ptr %28, i64 8
  %.051 = load ptr, ptr %29, align 8
  %.not4652 = icmp eq ptr %.051, null
  br i1 %.not4652, label %._crit_edge, label %.lr.ph

.lr.ph:                                           ; preds = %27, %.lr.ph
  %.055 = phi ptr [ %.0, %.lr.ph ], [ %.051, %27 ]
  %.154 = phi i64 [ %33, %.lr.ph ], [ %1, %27 ]
  %.14453 = phi i64 [ %37, %.lr.ph ], [ %2, %27 ]
  %30 = load i64, ptr %.055, align 8
  %31 = getelementptr inbounds nuw i8, ptr %.055, i64 16
  %32 = load i64, ptr %31, align 8
  %.neg = sub i64 %.154, %30
  %33 = add i64 %.neg, %32
  %34 = getelementptr inbounds nuw i8, ptr %.055, i64 8
  %35 = load i64, ptr %34, align 8
  %36 = add i64 %32, %35
  %37 = sub i64 %.14453, %36
  %38 = getelementptr inbounds nuw i8, ptr %.055, i64 64
  %.0 = load ptr, ptr %38, align 8
  %.not46 = icmp eq ptr %.0, null
  br i1 %.not46, label %._crit_edge, label %.lr.ph, !llvm.loop !7

._crit_edge:                                      ; preds = %.lr.ph, %27
  %.144.lcssa = phi i64 [ %2, %27 ], [ %37, %.lr.ph ]
  %.1.lcssa = phi i64 [ %1, %27 ], [ %33, %.lr.ph ]
  %39 = getelementptr inbounds nuw i8, ptr %28, i64 96
  %40 = load i64, ptr %39, align 8
  %41 = sub i64 %.144.lcssa, %40
  %42 = tail call i64 @llvm.smax.i64(i64 %.1.lcssa, i64 0)
  %43 = tail call i64 @llvm.smax.i64(i64 %41, i64 0)
  br label %44

44:                                               ; preds = %18, %._crit_edge, %23
  %.043 = phi i64 [ %43, %._crit_edge ], [ %2, %23 ], [ %2, %18 ]
  %.042 = phi i64 [ %42, %._crit_edge ], [ %1, %23 ], [ %1, %18 ]
  %45 = tail call i64 @GetCurrentTimestamp() #9
  %46 = tail call i64 @TimestampDifferenceMilliseconds(i64 noundef %4, i64 noundef %45) #9
  %47 = getelementptr inbounds nuw i8, ptr %0, i64 72
  %48 = load i32, ptr %47, align 8
  %49 = zext i32 %48 to i64
  %50 = tail call ptr @pgstat_get_entry_ref_locked(i32 noundef 2, i32 noundef %12, i64 noundef %49, i1 noundef zeroext false) #9
  %51 = getelementptr inbounds nuw i8, ptr %50, i64 8
  %52 = load ptr, ptr %51, align 8
  %53 = getelementptr inbounds nuw i8, ptr %52, i64 96
  store i64 %.042, ptr %53, align 8
  %54 = getelementptr inbounds nuw i8, ptr %52, i64 104
  store i64 %.043, ptr %54, align 8
  br i1 %3, label %55, label %57

55:                                               ; preds = %44
  %56 = getelementptr inbounds nuw i8, ptr %52, i64 112
  store i64 0, ptr %56, align 8
  br label %57

57:                                               ; preds = %55, %44
  %58 = load i32, ptr @MyBackendType, align 4
  %59 = icmp eq i32 %58, 4
  %. = select i1 %59, i64 192, i64 176
  %.66 = select i1 %59, i64 200, i64 184
  %.67 = select i1 %59, i64 232, i64 224
  %60 = getelementptr inbounds nuw i8, ptr %52, i64 %.
  store i64 %45, ptr %60, align 8
  %61 = getelementptr inbounds nuw i8, ptr %52, i64 %.66
  %62 = load i64, ptr %61, align 8
  %63 = add i64 %62, 1
  store i64 %63, ptr %61, align 8
  %64 = getelementptr inbounds nuw i8, ptr %52, i64 %.67
  %65 = load i64, ptr %64, align 8
  %66 = add i64 %65, %46
  store i64 %66, ptr %64, align 8
  tail call void @pgstat_unlock_entry(ptr noundef nonnull %50) #9
  tail call void @pgstat_flush_io(i1 noundef zeroext false) #9
  %67 = tail call zeroext i1 @pgstat_flush_backend(i1 noundef zeroext false, i32 noundef 1) #9
  br label %68

68:                                               ; preds = %5, %57
  ret void
}